target datalayout = "e-m:e-p270:32:32-p271:32:32-p272:64:64-i64:64-i128:128-f80:128-n8:16:32:64-S128"
target triple = "x86_64-pc-linux-gnu"

@.str.64 = private unnamed_addr constant [39 x i8] c"auto_detect_line_endings is deprecated\00", align 1

; Function Attrs: nounwind uwtable
define internal i32 @OnUpdateAutoDetectLineEndings(ptr noundef %0, ptr noundef %1, ptr noundef %2, ptr noundef %3, ptr noundef %4, i32 noundef %5) #0 {
  %7 = alloca ptr, align 8
  %8 = alloca ptr, align 8
  %9 = alloca ptr, align 8
  %10 = alloca ptr, align 8
  %11 = alloca ptr, align 8
  %12 = alloca i32, align 4
  store ptr %0, ptr %7, align 8, !tbaa !150
  store ptr %1, ptr %8, align 8, !tbaa !80
  store ptr %2, ptr %9, align 8, !tbaa !18
  store ptr %3, ptr %10, align 8, !tbaa !18
  store ptr %4, ptr %11, align 8, !tbaa !18
  store i32 %5, ptr %12, align 4, !tbaa !4
  %13 = load ptr, ptr %8, align 8, !tbaa !80
  %14 = call zeroext i1 @zend_ini_parse_bool(ptr noundef %13)
  br i1 %14, label %15, label %16

15:                                               ; preds = %6
  call void (i32, ptr, ...) @zend_error(i32 noundef 8192, ptr noundef @.str.64)
  br label %16

16:                                               ; preds = %15, %6
  %17 = load ptr, ptr %7, align 8, !tbaa !150
  %18 = load ptr, ptr %8, align 8, !tbaa !80
  %19 = load ptr, ptr %9, align 8, !tbaa !18
  %20 = load ptr, ptr %10, align 8, !tbaa !18
  %21 = load ptr, ptr %11, align 8, !tbaa !18
  %22 = load i32, ptr %12, align 4, !tbaa !4
  %23 = call i32 @OnUpdateBool(ptr noundef %17, ptr noundef %18, ptr noundef %19, ptr noundef %20, ptr noundef %21, i32 noundef %22)
  ret i32 %23
}