; Function Attrs: nounwind uwtable
define internal i32 @OnUpdateAutoDetectLineEndings(ptr noundef %0, ptr noundef %1, ptr noundef %2, ptr noundef %3, ptr noundef %4, i32 noundef %5) #1 {
  %7 = tail call zeroext i1 @zend_ini_parse_bool(ptr noundef %1) #18
  br i1 %7, label %8, label %9

8:                                                ; preds = %6
  tail call void (i32, ptr, ...) @zend_error(i32 noundef 8192, ptr noundef nonnull @.str.64) #18
  br label %9

9:                                                ; preds = %8, %6
  %10 = tail call i32 @OnUpdateBool(ptr noundef %0, ptr noundef %1, ptr noundef %2, ptr noundef %3, ptr noundef %4, i32 noundef %5) #18
  ret i32 %10
}